target datalayout = "e-m:e-p270:32:32-p271:32:32-p272:64:64-i64:64-i128:128-f80:128-n8:16:32:64-S128"
target triple = "x86_64-pc-linux-gnu"

%struct.expert_field = type { i32, i32 }
%struct._packet_info = type { ptr, ptr, i32, i32, %struct.nstime_t, %struct.nstime_t, %struct.nstime_t, i8, ptr, ptr, ptr, ptr, %struct._address, %struct._address, %struct._address, %struct._address, %struct._address, %struct._address, i32, ptr, i8, [3 x i8], %struct.anon, i32, i32, i32, i32, ptr, i8, ptr, ptr, i16, i16, i32, i32, i16, i32, i32, ptr, ptr, ptr, i8, i8, i16, i16, i16, i32, i16, i16, ptr, ptr, ptr, ptr, ptr, i32, i32 }
%struct.nstime_t = type { i64, i32 }
%struct._address = type { i32, i32, ptr, ptr }
%struct.anon = type { i8, [3 x i8] }
%struct._diam_ctx_t = type { ptr, ptr, ptr }
%struct._proto_node = type { ptr, ptr, ptr, ptr, ptr, ptr, ptr }
%struct.field_info = type { ptr, i32, i32, i32, i32, i32, i32, ptr, ptr, ptr, i32, i32 }
%struct._diam_avp_t = type { i32, ptr, ptr, i32, i32, ptr }

@.str.70 = private unnamed_addr constant [3 x i8] c": \00", align 1
@hf_diameter_avp_data_wrong_length = internal global i32 0, align 4
@ei_diameter_avp_len = internal global %struct.expert_field zeroinitializer, align 4
@.str.128 = private unnamed_addr constant [30 x i8] c"Error!  Bad Unsigned64 Length\00", align 1
@.str.129 = private unnamed_addr constant [27 x i8] c"Bad Unsigned64 Length (%u)\00", align 1

; Function Attrs: inlinehint nounwind null_pointer_is_valid sspstrong uwtable
define internal void @proto_item_set_generated(ptr noundef %0) #8 {
  %2 = alloca ptr, align 8
  store ptr %0, ptr %2, align 8
  %3 = load ptr, ptr %2, align 8
  %4 = icmp ne ptr %3, null
  br i1 %4, label %5, label %24

5:                                                ; preds = %1
  br label %6

6:                                                ; preds = %5
  %7 = load ptr, ptr %2, align 8
  %8 = getelementptr inbounds nuw %struct._proto_node, ptr %7, i32 0, i32 5
  %9 = load ptr, ptr %8, align 8
  %10 = icmp ne ptr %9, null
  br i1 %10, label %11, label %22

11:                                               ; preds = %6
  %12 = load ptr, ptr %2, align 8
  %13 = getelementptr inbounds nuw %struct._proto_node, ptr %12, i32 0, i32 5
  %14 = load ptr, ptr %13, align 8
  %15 = getelementptr inbounds nuw %struct.field_info, ptr %14, i32 0, i32 6
  %16 = load i32, ptr %15, align 4
  %17 = or i32 %16, 2
  %18 = load ptr, ptr %2, align 8
  %19 = getelementptr inbounds nuw %struct._proto_node, ptr %18, i32 0, i32 5
  %20 = load ptr, ptr %19, align 8
  %21 = getelementptr inbounds nuw %struct.field_info, ptr %20, i32 0, i32 6
  store i32 %17, ptr %21, align 4
  br label %22

22:                                               ; preds = %11, %6
  br label %23

23:                                               ; preds = %22
  br label %24

24:                                               ; preds = %23, %1
  ret void
}

; Function Attrs: null_pointer_is_valid sspstrong uwtable
define internal ptr @unsigned64_avp(ptr noundef %0, ptr noundef %1, ptr noundef %2, ptr noundef %3) #0 {
  %5 = alloca ptr, align 8
  %6 = alloca ptr, align 8
  %7 = alloca ptr, align 8
  %8 = alloca ptr, align 8
  %9 = alloca ptr, align 8
  %10 = alloca ptr, align 8
  %11 = alloca i32, align 4
  store ptr %0, ptr %5, align 8
  store ptr %1, ptr %6, align 8
  store ptr %2, ptr %7, align 8
  store ptr %3, ptr %8, align 8
  call void @llvm.lifetime.start.p0(i64 8, ptr %9) #14
  store ptr null, ptr %9, align 8
  call void @llvm.lifetime.start.p0(i64 8, ptr %10) #14
  call void @llvm.lifetime.start.p0(i64 4, ptr %11) #14
  %12 = load ptr, ptr %7, align 8
  %13 = call i32 @tvb_reported_length(ptr noundef %12)
  store i32 %13, ptr %11, align 4
  %14 = load i32, ptr %11, align 4
  %15 = icmp eq i32 %14, 8
  br i1 %15, label %16, label %45

16:                                               ; preds = %4
  %17 = load ptr, ptr %5, align 8
  %18 = getelementptr inbounds nuw %struct._diam_ctx_t, ptr %17, i32 0, i32 0
  %19 = load ptr, ptr %18, align 8
  %20 = icmp ne ptr %19, null
  br i1 %20, label %21, label %44

21:                                               ; preds = %16
  %22 = load ptr, ptr %5, align 8
  %23 = getelementptr inbounds nuw %struct._diam_ctx_t, ptr %22, i32 0, i32 0
  %24 = load ptr, ptr %23, align 8
  %25 = load ptr, ptr %6, align 8
  %26 = getelementptr inbounds nuw %struct._diam_avp_t, ptr %25, i32 0, i32 4
  %27 = load i32, ptr %26, align 4
  %28 = load ptr, ptr %7, align 8
  %29 = load i32, ptr %11, align 4
  %30 = call ptr @proto_tree_add_item(ptr noundef %24, i32 noundef %27, ptr noundef %28, i32 noundef 0, i32 noundef %29, i32 noundef 0)
  store ptr %30, ptr %10, align 8
  %31 = load ptr, ptr %5, align 8
  %32 = getelementptr inbounds nuw %struct._diam_ctx_t, ptr %31, i32 0, i32 1
  %33 = load ptr, ptr %32, align 8
  %34 = getelementptr inbounds nuw %struct._packet_info, ptr %33, i32 0, i32 51
  %35 = load ptr, ptr %34, align 8
  %36 = call noalias ptr @wmem_alloc(ptr noundef %35, i64 noundef 241) #15
  store ptr %36, ptr %9, align 8
  %37 = load ptr, ptr %10, align 8
  %38 = getelementptr inbounds nuw %struct._proto_node, ptr %37, i32 0, i32 5
  %39 = load ptr, ptr %38, align 8
  %40 = load ptr, ptr %9, align 8
  call void @proto_item_fill_label(ptr noundef %39, ptr noundef %40, ptr noundef null)
  %41 = load ptr, ptr %9, align 8
  %42 = call ptr @strstr(ptr noundef %41, ptr noundef @.str.70) #17
  %43 = getelementptr i8, ptr %42, i64 2
  store ptr %43, ptr %9, align 8
  br label %44

44:                                               ; preds = %21, %16
  br label %60

45:                                               ; preds = %4
  %46 = load ptr, ptr %5, align 8
  %47 = getelementptr inbounds nuw %struct._diam_ctx_t, ptr %46, i32 0, i32 0
  %48 = load ptr, ptr %47, align 8
  %49 = load i32, ptr @hf_diameter_avp_data_wrong_length, align 4
  %50 = load ptr, ptr %7, align 8
  %51 = load i32, ptr %11, align 4
  %52 = call ptr (ptr, i32, ptr, i32, i32, ptr, ptr, ...) @proto_tree_add_bytes_format(ptr noundef %48, i32 noundef %49, ptr noundef %50, i32 noundef 0, i32 noundef %51, ptr noundef null, ptr noundef @.str.128)
  store ptr %52, ptr %10, align 8
  %53 = load ptr, ptr %5, align 8
  %54 = getelementptr inbounds nuw %struct._diam_ctx_t, ptr %53, i32 0, i32 1
  %55 = load ptr, ptr %54, align 8
  %56 = load ptr, ptr %10, align 8
  %57 = load i32, ptr %11, align 4
  %58 = call ptr (ptr, ptr, ptr, ptr, ...) @expert_add_info_format(ptr noundef %55, ptr noundef %56, ptr noundef @ei_diameter_avp_len, ptr noundef @.str.129, i32 noundef %57)
  %59 = load ptr, ptr %10, align 8
  call void @proto_item_set_generated(ptr noundef %59)
  br label %60

60:                                               ; preds = %45, %44
  %61 = load ptr, ptr %9, align 8
  call void @llvm.lifetime.end.p0(i64 4, ptr %11) #14
  call void @llvm.lifetime.end.p0(i64 8, ptr %10) #14
  call void @llvm.lifetime.end.p0(i64 8, ptr %9) #14
  ret ptr %61
}